; Function Attrs: nounwind uwtable
define hidden void @_PyErr_Restore(ptr noundef captures(none) %0, ptr noundef %1, ptr noundef %2, ptr noundef %3) local_unnamed_addr #0 {
  %5 = icmp eq ptr %1, null
  br i1 %5, label %6, label %14

6:                                                ; preds = %4
  %7 = getelementptr inbounds nuw i8, ptr %0, i64 112
  %8 = load ptr, ptr %7, align 8, !tbaa !4
  store ptr null, ptr %7, align 8, !tbaa !4
  %.not.i.i = icmp eq ptr %8, null
  br i1 %.not.i.i, label %_PyErr_SetRaisedException.exit, label %9

9:                                                ; preds = %6
  %10 = load i32, ptr %8, align 8, !tbaa !20
  %.not.i.i.i = icmp sgt i32 %10, -1
  br i1 %.not.i.i.i, label %11, label %_PyErr_SetRaisedException.exit

11:                                               ; preds = %9
  %12 = add nsw i32 %10, -1
  store i32 %12, ptr %8, align 8, !tbaa !20
  %13 = icmp eq i32 %12, 0
  br i1 %13, label %_PyErr_SetRaisedException.exit.sink.split, label %_PyErr_SetRaisedException.exit

14:                                               ; preds = %4
  %.not = icmp eq ptr %2, null
  br i1 %.not, label %.split, label %16

.split:                                           ; preds = %14
  %15 = tail call fastcc ptr @_PyErr_CreateException(ptr noundef nonnull %1, ptr noundef null)
  br label %Py_XDECREF.exit

16:                                               ; preds = %14
  %17 = getelementptr i8, ptr %2, i64 8
  %.val = load ptr, ptr %17, align 8, !tbaa !21
  %18 = icmp eq ptr %1, %.val
  br i1 %18, label %Py_XDECREF.exit48, label %19

19:                                               ; preds = %16
  %20 = tail call fastcc ptr @_PyErr_CreateException(ptr noundef nonnull %1, ptr noundef nonnull %2)
  %21 = load i32, ptr %2, align 8, !tbaa !20
  %.not.i.i45 = icmp sgt i32 %21, -1
  br i1 %.not.i.i45, label %22, label %Py_XDECREF.exit

22:                                               ; preds = %19
  %23 = add nsw i32 %21, -1
  store i32 %23, ptr %2, align 8, !tbaa !20
  %24 = icmp eq i32 %23, 0
  br i1 %24, label %25, label %Py_XDECREF.exit

25:                                               ; preds = %22
  tail call void @_Py_Dealloc(ptr noundef nonnull %2) #17
  br label %Py_XDECREF.exit

Py_XDECREF.exit:                                  ; preds = %25, %22, %19, %.split
  %phi.call = phi ptr [ %15, %.split ], [ %20, %19 ], [ %20, %22 ], [ %20, %25 ]
  %26 = icmp eq ptr %phi.call, null
  br i1 %26, label %27, label %Py_XDECREF.exit48

27:                                               ; preds = %Py_XDECREF.exit
  %28 = load i32, ptr %1, align 8, !tbaa !20
  %.not.i = icmp sgt i32 %28, -1
  br i1 %.not.i, label %29, label %Py_DECREF.exit

29:                                               ; preds = %27
  %30 = add nsw i32 %28, -1
  store i32 %30, ptr %1, align 8, !tbaa !20
  %31 = icmp eq i32 %30, 0
  br i1 %31, label %32, label %Py_DECREF.exit

32:                                               ; preds = %29
  tail call void @_Py_Dealloc(ptr noundef nonnull %1) #17
  br label %Py_DECREF.exit

Py_DECREF.exit:                                   ; preds = %27, %29, %32
  %.not.i46 = icmp eq ptr %3, null
  br i1 %.not.i46, label %_PyErr_SetRaisedException.exit, label %33

33:                                               ; preds = %Py_DECREF.exit
  %34 = load i32, ptr %3, align 8, !tbaa !20
  %.not.i.i47 = icmp sgt i32 %34, -1
  br i1 %.not.i.i47, label %35, label %_PyErr_SetRaisedException.exit

35:                                               ; preds = %33
  %36 = add nsw i32 %34, -1
  store i32 %36, ptr %3, align 8, !tbaa !20
  %37 = icmp eq i32 %36, 0
  br i1 %37, label %_PyErr_SetRaisedException.exit.sink.split, label %_PyErr_SetRaisedException.exit

Py_XDECREF.exit48:                                ; preds = %Py_XDECREF.exit, %16
  %.0 = phi ptr [ %2, %16 ], [ %phi.call, %Py_XDECREF.exit ]
  %.not32 = icmp eq ptr %3, null
  br i1 %.not32, label %Py_DECREF.exit35, label %38

38:                                               ; preds = %Py_XDECREF.exit48
  %39 = getelementptr i8, ptr %3, i64 8
  %.val43 = load ptr, ptr %39, align 8, !tbaa !21
  %.not65 = icmp eq ptr %.val43, @PyTraceBack_Type
  br i1 %.not65, label %Py_DECREF.exit35, label %40

40:                                               ; preds = %38
  %41 = icmp eq ptr %3, @_Py_NoneStruct
  br i1 %41, label %42, label %48

42:                                               ; preds = %40
  %43 = load i32, ptr @_Py_NoneStruct, align 8, !tbaa !20
  %.not.i34 = icmp sgt i32 %43, -1
  br i1 %.not.i34, label %44, label %Py_DECREF.exit35

44:                                               ; preds = %42
  %45 = add nsw i32 %43, -1
  store i32 %45, ptr @_Py_NoneStruct, align 8, !tbaa !20
  %46 = icmp eq i32 %45, 0
  br i1 %46, label %47, label %Py_DECREF.exit35

47:                                               ; preds = %44
  tail call void @_Py_Dealloc(ptr noundef nonnull @_Py_NoneStruct) #17
  br label %Py_DECREF.exit35

48:                                               ; preds = %40
  %49 = load ptr, ptr @PyExc_TypeError, align 8, !tbaa !24
  %50 = tail call align 8 ptr @llvm.threadlocal.address.p0(ptr align 8 @_Py_tss_tstate)
  %51 = load ptr, ptr %50, align 8, !tbaa !25
  %52 = tail call ptr @PyUnicode_FromString(ptr noundef nonnull @.str) #17
  %.not.i61 = icmp eq ptr %52, null
  br i1 %.not.i61, label %_PyErr_SetString.exit, label %53

53:                                               ; preds = %48
  tail call void @_PyErr_SetObject(ptr noundef %51, ptr noundef %49, ptr noundef nonnull %52)
  %54 = load i32, ptr %52, align 8, !tbaa !20
  %.not.i.i62 = icmp sgt i32 %54, -1
  br i1 %.not.i.i62, label %55, label %_PyErr_SetString.exit

55:                                               ; preds = %53
  %56 = add nsw i32 %54, -1
  store i32 %56, ptr %52, align 8, !tbaa !20
  %57 = icmp eq i32 %56, 0
  br i1 %57, label %58, label %_PyErr_SetString.exit

58:                                               ; preds = %55
  tail call void @_Py_Dealloc(ptr noundef nonnull %52) #17
  br label %_PyErr_SetString.exit

_PyErr_SetString.exit:                            ; preds = %48, %58, %55, %53
  %59 = load i32, ptr %.0, align 8, !tbaa !20
  %.not.i.i50 = icmp sgt i32 %59, -1
  br i1 %.not.i.i50, label %60, label %Py_XDECREF.exit51

60:                                               ; preds = %_PyErr_SetString.exit
  %61 = add nsw i32 %59, -1
  store i32 %61, ptr %.0, align 8, !tbaa !20
  %62 = icmp eq i32 %61, 0
  br i1 %62, label %63, label %Py_XDECREF.exit51

63:                                               ; preds = %60
  tail call void @_Py_Dealloc(ptr noundef nonnull %.0) #17
  br label %Py_XDECREF.exit51

Py_XDECREF.exit51:                                ; preds = %_PyErr_SetString.exit, %60, %63
  %64 = load i32, ptr %1, align 8, !tbaa !20
  %.not.i36 = icmp sgt i32 %64, -1
  br i1 %.not.i36, label %65, label %Py_DECREF.exit37

65:                                               ; preds = %Py_XDECREF.exit51
  %66 = add nsw i32 %64, -1
  store i32 %66, ptr %1, align 8, !tbaa !20
  %67 = icmp eq i32 %66, 0
  br i1 %67, label %68, label %Py_DECREF.exit37

68:                                               ; preds = %65
  tail call void @_Py_Dealloc(ptr noundef nonnull %1) #17
  br label %Py_DECREF.exit37

Py_DECREF.exit37:                                 ; preds = %68, %65, %Py_XDECREF.exit51
  %69 = load i32, ptr %3, align 8, !tbaa !20
  %.not.i.i53 = icmp sgt i32 %69, -1
  br i1 %.not.i.i53, label %70, label %_PyErr_SetRaisedException.exit

70:                                               ; preds = %Py_DECREF.exit37
  %71 = add nsw i32 %69, -1
  store i32 %71, ptr %3, align 8, !tbaa !20
  %72 = icmp eq i32 %71, 0
  br i1 %72, label %_PyErr_SetRaisedException.exit.sink.split, label %_PyErr_SetRaisedException.exit

Py_DECREF.exit35:                                 ; preds = %47, %44, %42, %38, %Py_XDECREF.exit48
  %.026 = phi ptr [ %3, %38 ], [ null, %Py_XDECREF.exit48 ], [ null, %42 ], [ null, %44 ], [ null, %47 ]
  %73 = getelementptr inbounds nuw i8, ptr %.0, i64 40
  %74 = load ptr, ptr %73, align 8, !tbaa !26
  store ptr %.026, ptr %73, align 8, !tbaa !26
  %.not.i55 = icmp eq ptr %74, null
  br i1 %.not.i55, label %Py_XDECREF.exit57, label %75

75:                                               ; preds = %Py_DECREF.exit35
  %76 = load i32, ptr %74, align 8, !tbaa !20
  %.not.i.i56 = icmp sgt i32 %76, -1
  br i1 %.not.i.i56, label %77, label %Py_XDECREF.exit57

77:                                               ; preds = %75
  %78 = add nsw i32 %76, -1
  store i32 %78, ptr %74, align 8, !tbaa !20
  %79 = icmp eq i32 %78, 0
  br i1 %79, label %80, label %Py_XDECREF.exit57

80:                                               ; preds = %77
  tail call void @_Py_Dealloc(ptr noundef nonnull %74) #17
  br label %Py_XDECREF.exit57

Py_XDECREF.exit57:                                ; preds = %Py_DECREF.exit35, %75, %77, %80
  %81 = getelementptr inbounds nuw i8, ptr %0, i64 112
  %82 = load ptr, ptr %81, align 8, !tbaa !4
  store ptr %.0, ptr %81, align 8, !tbaa !4
  %.not.i.i58 = icmp eq ptr %82, null
  br i1 %.not.i.i58, label %_PyErr_SetRaisedException.exit60, label %83

83:                                               ; preds = %Py_XDECREF.exit57
  %84 = load i32, ptr %82, align 8, !tbaa !20
  %.not.i.i.i59 = icmp sgt i32 %84, -1
  br i1 %.not.i.i.i59, label %85, label %_PyErr_SetRaisedException.exit60

85:                                               ; preds = %83
  %86 = add nsw i32 %84, -1
  store i32 %86, ptr %82, align 8, !tbaa !20
  %87 = icmp eq i32 %86, 0
  br i1 %87, label %88, label %_PyErr_SetRaisedException.exit60

88:                                               ; preds = %85
  tail call void @_Py_Dealloc(ptr noundef nonnull %82) #17
  br label %_PyErr_SetRaisedException.exit60

_PyErr_SetRaisedException.exit60:                 ; preds = %Py_XDECREF.exit57, %83, %85, %88
  %89 = load i32, ptr %1, align 8, !tbaa !20
  %.not.i38 = icmp sgt i32 %89, -1
  br i1 %.not.i38, label %90, label %_PyErr_SetRaisedException.exit

90:                                               ; preds = %_PyErr_SetRaisedException.exit60
  %91 = add nsw i32 %89, -1
  store i32 %91, ptr %1, align 8, !tbaa !20
  %92 = icmp eq i32 %91, 0
  br i1 %92, label %_PyErr_SetRaisedException.exit.sink.split, label %_PyErr_SetRaisedException.exit

_PyErr_SetRaisedException.exit.sink.split:        ; preds = %90, %70, %35, %11
  %.sink = phi ptr [ %8, %11 ], [ %3, %35 ], [ %3, %70 ], [ %1, %90 ]
  tail call void @_Py_Dealloc(ptr noundef nonnull %.sink) #17
  br label %_PyErr_SetRaisedException.exit

_PyErr_SetRaisedException.exit:                   ; preds = %_PyErr_SetRaisedException.exit.sink.split, %Py_DECREF.exit, %33, %35, %90, %_PyErr_SetRaisedException.exit60, %70, %Py_DECREF.exit37, %11, %9, %6
  ret void
}